target datalayout = "e-m:e-p270:32:32-p271:32:32-p272:64:64-i64:64-i128:128-f80:128-n8:16:32:64-S128"
target triple = "x86_64-pc-linux-gnu"

%struct.Color = type { i8, i8, i8, i8 }
%struct.Vector2 = type { float, float }

; Function Attrs: nounwind uwtable
define void @DrawSplineSegmentBasis(<2 x float> %0, <2 x float> %1, <2 x float> %2, <2 x float> %3, float noundef %4, i32 %5) #0 {
  %7 = alloca %struct.Vector2, align 4
  %8 = alloca %struct.Vector2, align 4
  %9 = alloca %struct.Vector2, align 4
  %10 = alloca %struct.Vector2, align 4
  %11 = alloca %struct.Color, align 1
  %12 = alloca float, align 4
  %13 = alloca float, align 4
  %14 = alloca %struct.Vector2, align 4
  %15 = alloca %struct.Vector2, align 4
  %16 = alloca float, align 4
  %17 = alloca [50 x %struct.Vector2], align 16
  %18 = alloca [4 x float], align 16
  %19 = alloca [4 x float], align 16
  %20 = alloca i32, align 4
  %21 = alloca float, align 4
  %22 = alloca float, align 4
  %23 = alloca float, align 4
  store <2 x float> %0, ptr %7, align 4
  store <2 x float> %1, ptr %8, align 4
  store <2 x float> %2, ptr %9, align 4
  store <2 x float> %3, ptr %10, align 4
  store i32 %5, ptr %11, align 1
  store float %4, ptr %12, align 4
  call void @llvm.lifetime.start.p0(i64 4, ptr %13) #8
  store float 0x3FA5555560000000, ptr %13, align 4
  call void @llvm.lifetime.start.p0(i64 8, ptr %14) #8
  call void @llvm.memset.p0.i64(ptr align 4 %14, i8 0, i64 8, i1 false)
  call void @llvm.lifetime.start.p0(i64 8, ptr %15) #8
  call void @llvm.memset.p0.i64(ptr align 4 %15, i8 0, i64 8, i1 false)
  call void @llvm.lifetime.start.p0(i64 4, ptr %16) #8
  store float 0.000000e+00, ptr %16, align 4
  call void @llvm.lifetime.start.p0(i64 400, ptr %17) #8
  call void @llvm.memset.p0.i64(ptr align 16 %17, i8 0, i64 400, i1 false)
  call void @llvm.lifetime.start.p0(i64 16, ptr %18) #8
  call void @llvm.memset.p0.i64(ptr align 16 %18, i8 0, i64 16, i1 false)
  call void @llvm.lifetime.start.p0(i64 16, ptr %19) #8
  call void @llvm.memset.p0.i64(ptr align 16 %19, i8 0, i64 16, i1 false)
  %24 = getelementptr inbounds nuw %struct.Vector2, ptr %7, i32 0, i32 0
  %25 = load float, ptr %24, align 4
  %26 = fneg float %25
  %27 = getelementptr inbounds nuw %struct.Vector2, ptr %8, i32 0, i32 0
  %28 = load float, ptr %27, align 4
  %29 = call float @llvm.fmuladd.f32(float 3.000000e+00, float %28, float %26)
  %30 = getelementptr inbounds nuw %struct.Vector2, ptr %9, i32 0, i32 0
  %31 = load float, ptr %30, align 4
  %32 = call float @llvm.fmuladd.f32(float -3.000000e+00, float %31, float %29)
  %33 = getelementptr inbounds nuw %struct.Vector2, ptr %10, i32 0, i32 0
  %34 = load float, ptr %33, align 4
  %35 = fadd float %32, %34
  %36 = fdiv float %35, 6.000000e+00
  %37 = getelementptr inbounds [4 x float], ptr %18, i64 0, i64 0
  store float %36, ptr %37, align 16
  %38 = getelementptr inbounds nuw %struct.Vector2, ptr %7, i32 0, i32 0
  %39 = load float, ptr %38, align 4
  %40 = getelementptr inbounds nuw %struct.Vector2, ptr %8, i32 0, i32 0
  %41 = load float, ptr %40, align 4
  %42 = fmul float 6.000000e+00, %41
  %43 = fneg float %42
  %44 = call float @llvm.fmuladd.f32(float 3.000000e+00, float %39, float %43)
  %45 = getelementptr inbounds nuw %struct.Vector2, ptr %9, i32 0, i32 0
  %46 = load float, ptr %45, align 4
  %47 = call float @llvm.fmuladd.f32(float 3.000000e+00, float %46, float %44)
  %48 = fdiv float %47, 6.000000e+00
  %49 = getelementptr inbounds [4 x float], ptr %18, i64 0, i64 1
  store float %48, ptr %49, align 4
  %50 = getelementptr inbounds nuw %struct.Vector2, ptr %7, i32 0, i32 0
  %51 = load float, ptr %50, align 4
  %52 = getelementptr inbounds nuw %struct.Vector2, ptr %9, i32 0, i32 0
  %53 = load float, ptr %52, align 4
  %54 = fmul float 3.000000e+00, %53
  %55 = call float @llvm.fmuladd.f32(float -3.000000e+00, float %51, float %54)
  %56 = fdiv float %55, 6.000000e+00
  %57 = getelementptr inbounds [4 x float], ptr %18, i64 0, i64 2
  store float %56, ptr %57, align 8
  %58 = getelementptr inbounds nuw %struct.Vector2, ptr %7, i32 0, i32 0
  %59 = load float, ptr %58, align 4
  %60 = getelementptr inbounds nuw %struct.Vector2, ptr %8, i32 0, i32 0
  %61 = load float, ptr %60, align 4
  %62 = call float @llvm.fmuladd.f32(float 4.000000e+00, float %61, float %59)
  %63 = getelementptr inbounds nuw %struct.Vector2, ptr %9, i32 0, i32 0
  %64 = load float, ptr %63, align 4
  %65 = fadd float %62, %64
  %66 = fdiv float %65, 6.000000e+00
  %67 = getelementptr inbounds [4 x float], ptr %18, i64 0, i64 3
  store float %66, ptr %67, align 4
  %68 = getelementptr inbounds nuw %struct.Vector2, ptr %7, i32 0, i32 1
  %69 = load float, ptr %68, align 4
  %70 = fneg float %69
  %71 = getelementptr inbounds nuw %struct.Vector2, ptr %8, i32 0, i32 1
  %72 = load float, ptr %71, align 4
  %73 = call float @llvm.fmuladd.f32(float 3.000000e+00, float %72, float %70)
  %74 = getelementptr inbounds nuw %struct.Vector2, ptr %9, i32 0, i32 1
  %75 = load float, ptr %74, align 4
  %76 = call float @llvm.fmuladd.f32(float -3.000000e+00, float %75, float %73)
  %77 = getelementptr inbounds nuw %struct.Vector2, ptr %10, i32 0, i32 1
  %78 = load float, ptr %77, align 4
  %79 = fadd float %76, %78
  %80 = fdiv float %79, 6.000000e+00
  %81 = getelementptr inbounds [4 x float], ptr %19, i64 0, i64 0
  store float %80, ptr %81, align 16
  %82 = getelementptr inbounds nuw %struct.Vector2, ptr %7, i32 0, i32 1
  %83 = load float, ptr %82, align 4
  %84 = getelementptr inbounds nuw %struct.Vector2, ptr %8, i32 0, i32 1
  %85 = load float, ptr %84, align 4
  %86 = fmul float 6.000000e+00, %85
  %87 = fneg float %86
  %88 = call float @llvm.fmuladd.f32(float 3.000000e+00, float %83, float %87)
  %89 = getelementptr inbounds nuw %struct.Vector2, ptr %9, i32 0, i32 1
  %90 = load float, ptr %89, align 4
  %91 = call float @llvm.fmuladd.f32(float 3.000000e+00, float %90, float %88)
  %92 = fdiv float %91, 6.000000e+00
  %93 = getelementptr inbounds [4 x float], ptr %19, i64 0, i64 1
  store float %92, ptr %93, align 4
  %94 = getelementptr inbounds nuw %struct.Vector2, ptr %7, i32 0, i32 1
  %95 = load float, ptr %94, align 4
  %96 = getelementptr inbounds nuw %struct.Vector2, ptr %9, i32 0, i32 1
  %97 = load float, ptr %96, align 4
  %98 = fmul float 3.000000e+00, %97
  %99 = call float @llvm.fmuladd.f32(float -3.000000e+00, float %95, float %98)
  %100 = fdiv float %99, 6.000000e+00
  %101 = getelementptr inbounds [4 x float], ptr %19, i64 0, i64 2
  store float %100, ptr %101, align 8
  %102 = getelementptr inbounds nuw %struct.Vector2, ptr %7, i32 0, i32 1
  %103 = load float, ptr %102, align 4
  %104 = getelementptr inbounds nuw %struct.Vector2, ptr %8, i32 0, i32 1
  %105 = load float, ptr %104, align 4
  %106 = call float @llvm.fmuladd.f32(float 4.000000e+00, float %105, float %103)
  %107 = getelementptr inbounds nuw %struct.Vector2, ptr %9, i32 0, i32 1
  %108 = load float, ptr %107, align 4
  %109 = fadd float %106, %108
  %110 = fdiv float %109, 6.000000e+00
  %111 = getelementptr inbounds [4 x float], ptr %19, i64 0, i64 3
  store float %110, ptr %111, align 4
  %112 = getelementptr inbounds [4 x float], ptr %18, i64 0, i64 3
  %113 = load float, ptr %112, align 4
  %114 = getelementptr inbounds nuw %struct.Vector2, ptr %14, i32 0, i32 0
  store float %113, ptr %114, align 4
  %115 = getelementptr inbounds [4 x float], ptr %19, i64 0, i64 3
  %116 = load float, ptr %115, align 4
  %117 = getelementptr inbounds nuw %struct.Vector2, ptr %14, i32 0, i32 1
  store float %116, ptr %117, align 4
  call void @llvm.lifetime.start.p0(i64 4, ptr %20) #8
  store i32 0, ptr %20, align 4
  br label %118

118:                                              ; preds = %254, %6
  %119 = load i32, ptr %20, align 4
  %120 = icmp sle i32 %119, 24
  br i1 %120, label %122, label %121

121:                                              ; preds = %118
  call void @llvm.lifetime.end.p0(i64 4, ptr %20) #8
  br label %257

122:                                              ; preds = %118
  %123 = load i32, ptr %20, align 4
  %124 = sitofp i32 %123 to float
  %125 = fmul float 0x3FA5555560000000, %124
  store float %125, ptr %16, align 4
  %126 = getelementptr inbounds [4 x float], ptr %18, i64 0, i64 3
  %127 = load float, ptr %126, align 4
  %128 = load float, ptr %16, align 4
  %129 = getelementptr inbounds [4 x float], ptr %18, i64 0, i64 2
  %130 = load float, ptr %129, align 8
  %131 = load float, ptr %16, align 4
  %132 = getelementptr inbounds [4 x float], ptr %18, i64 0, i64 1
  %133 = load float, ptr %132, align 4
  %134 = load float, ptr %16, align 4
  %135 = getelementptr inbounds [4 x float], ptr %18, i64 0, i64 0
  %136 = load float, ptr %135, align 16
  %137 = call float @llvm.fmuladd.f32(float %134, float %136, float %133)
  %138 = call float @llvm.fmuladd.f32(float %131, float %137, float %130)
  %139 = call float @llvm.fmuladd.f32(float %128, float %138, float %127)
  %140 = getelementptr inbounds nuw %struct.Vector2, ptr %15, i32 0, i32 0
  store float %139, ptr %140, align 4
  %141 = getelementptr inbounds [4 x float], ptr %19, i64 0, i64 3
  %142 = load float, ptr %141, align 4
  %143 = load float, ptr %16, align 4
  %144 = getelementptr inbounds [4 x float], ptr %19, i64 0, i64 2
  %145 = load float, ptr %144, align 8
  %146 = load float, ptr %16, align 4
  %147 = getelementptr inbounds [4 x float], ptr %19, i64 0, i64 1
  %148 = load float, ptr %147, align 4
  %149 = load float, ptr %16, align 4
  %150 = getelementptr inbounds [4 x float], ptr %19, i64 0, i64 0
  %151 = load float, ptr %150, align 16
  %152 = call float @llvm.fmuladd.f32(float %149, float %151, float %148)
  %153 = call float @llvm.fmuladd.f32(float %146, float %152, float %145)
  %154 = call float @llvm.fmuladd.f32(float %143, float %153, float %142)
  %155 = getelementptr inbounds nuw %struct.Vector2, ptr %15, i32 0, i32 1
  store float %154, ptr %155, align 4
  call void @llvm.lifetime.start.p0(i64 4, ptr %21) #8
  %156 = getelementptr inbounds nuw %struct.Vector2, ptr %15, i32 0, i32 1
  %157 = load float, ptr %156, align 4
  %158 = getelementptr inbounds nuw %struct.Vector2, ptr %14, i32 0, i32 1
  %159 = load float, ptr %158, align 4
  %160 = fsub float %157, %159
  store float %160, ptr %21, align 4
  call void @llvm.lifetime.start.p0(i64 4, ptr %22) #8
  %161 = getelementptr inbounds nuw %struct.Vector2, ptr %15, i32 0, i32 0
  %162 = load float, ptr %161, align 4
  %163 = getelementptr inbounds nuw %struct.Vector2, ptr %14, i32 0, i32 0
  %164 = load float, ptr %163, align 4
  %165 = fsub float %162, %164
  store float %165, ptr %22, align 4
  call void @llvm.lifetime.start.p0(i64 4, ptr %23) #8
  %166 = load float, ptr %12, align 4
  %167 = fmul float 5.000000e-01, %166
  %168 = load float, ptr %22, align 4
  %169 = load float, ptr %22, align 4
  %170 = load float, ptr %21, align 4
  %171 = load float, ptr %21, align 4
  %172 = fmul float %170, %171
  %173 = call float @llvm.fmuladd.f32(float %168, float %169, float %172)
  %174 = call float @sqrtf(float noundef %173) #8
  %175 = fdiv float %167, %174
  store float %175, ptr %23, align 4
  %176 = load i32, ptr %20, align 4
  %177 = icmp eq i32 %176, 1
  br i1 %177, label %178, label %209

178:                                              ; preds = %122
  %179 = getelementptr inbounds nuw %struct.Vector2, ptr %14, i32 0, i32 0
  %180 = load float, ptr %179, align 4
  %181 = load float, ptr %21, align 4
  %182 = load float, ptr %23, align 4
  %183 = call float @llvm.fmuladd.f32(float %181, float %182, float %180)
  %184 = getelementptr inbounds [50 x %struct.Vector2], ptr %17, i64 0, i64 0
  %185 = getelementptr inbounds nuw %struct.Vector2, ptr %184, i32 0, i32 0
  store float %183, ptr %185, align 16
  %186 = getelementptr inbounds nuw %struct.Vector2, ptr %14, i32 0, i32 1
  %187 = load float, ptr %186, align 4
  %188 = load float, ptr %22, align 4
  %189 = load float, ptr %23, align 4
  %190 = fneg float %188
  %191 = call float @llvm.fmuladd.f32(float %190, float %189, float %187)
  %192 = getelementptr inbounds [50 x %struct.Vector2], ptr %17, i64 0, i64 0
  %193 = getelementptr inbounds nuw %struct.Vector2, ptr %192, i32 0, i32 1
  store float %191, ptr %193, align 4
  %194 = getelementptr inbounds nuw %struct.Vector2, ptr %14, i32 0, i32 0
  %195 = load float, ptr %194, align 4
  %196 = load float, ptr %21, align 4
  %197 = load float, ptr %23, align 4
  %198 = fneg float %196
  %199 = call float @llvm.fmuladd.f32(float %198, float %197, float %195)
  %200 = getelementptr inbounds [50 x %struct.Vector2], ptr %17, i64 0, i64 1
  %201 = getelementptr inbounds nuw %struct.Vector2, ptr %200, i32 0, i32 0
  store float %199, ptr %201, align 8
  %202 = getelementptr inbounds nuw %struct.Vector2, ptr %14, i32 0, i32 1
  %203 = load float, ptr %202, align 4
  %204 = load float, ptr %22, align 4
  %205 = load float, ptr %23, align 4
  %206 = call float @llvm.fmuladd.f32(float %204, float %205, float %203)
  %207 = getelementptr inbounds [50 x %struct.Vector2], ptr %17, i64 0, i64 1
  %208 = getelementptr inbounds nuw %struct.Vector2, ptr %207, i32 0, i32 1
  store float %206, ptr %208, align 4
  br label %209

209:                                              ; preds = %178, %122
  %210 = getelementptr inbounds nuw %struct.Vector2, ptr %15, i32 0, i32 0
  %211 = load float, ptr %210, align 4
  %212 = load float, ptr %21, align 4
  %213 = load float, ptr %23, align 4
  %214 = fneg float %212
  %215 = call float @llvm.fmuladd.f32(float %214, float %213, float %211)
  %216 = load i32, ptr %20, align 4
  %217 = mul nsw i32 2, %216
  %218 = add nsw i32 %217, 1
  %219 = sext i32 %218 to i64
  %220 = getelementptr inbounds [50 x %struct.Vector2], ptr %17, i64 0, i64 %219
  %221 = getelementptr inbounds nuw %struct.Vector2, ptr %220, i32 0, i32 0
  store float %215, ptr %221, align 8
  %222 = getelementptr inbounds nuw %struct.Vector2, ptr %15, i32 0, i32 1
  %223 = load float, ptr %222, align 4
  %224 = load float, ptr %22, align 4
  %225 = load float, ptr %23, align 4
  %226 = call float @llvm.fmuladd.f32(float %224, float %225, float %223)
  %227 = load i32, ptr %20, align 4
  %228 = mul nsw i32 2, %227
  %229 = add nsw i32 %228, 1
  %230 = sext i32 %229 to i64
  %231 = getelementptr inbounds [50 x %struct.Vector2], ptr %17, i64 0, i64 %230
  %232 = getelementptr inbounds nuw %struct.Vector2, ptr %231, i32 0, i32 1
  store float %226, ptr %232, align 4
  %233 = getelementptr inbounds nuw %struct.Vector2, ptr %15, i32 0, i32 0
  %234 = load float, ptr %233, align 4
  %235 = load float, ptr %21, align 4
  %236 = load float, ptr %23, align 4
  %237 = call float @llvm.fmuladd.f32(float %235, float %236, float %234)
  %238 = load i32, ptr %20, align 4
  %239 = mul nsw i32 2, %238
  %240 = sext i32 %239 to i64
  %241 = getelementptr inbounds [50 x %struct.Vector2], ptr %17, i64 0, i64 %240
  %242 = getelementptr inbounds nuw %struct.Vector2, ptr %241, i32 0, i32 0
  store float %237, ptr %242, align 8
  %243 = getelementptr inbounds nuw %struct.Vector2, ptr %15, i32 0, i32 1
  %244 = load float, ptr %243, align 4
  %245 = load float, ptr %22, align 4
  %246 = load float, ptr %23, align 4
  %247 = fneg float %245
  %248 = call float @llvm.fmuladd.f32(float %247, float %246, float %244)
  %249 = load i32, ptr %20, align 4
  %250 = mul nsw i32 2, %249
  %251 = sext i32 %250 to i64
  %252 = getelementptr inbounds [50 x %struct.Vector2], ptr %17, i64 0, i64 %251
  %253 = getelementptr inbounds nuw %struct.Vector2, ptr %252, i32 0, i32 1
  store float %248, ptr %253, align 4
  call void @llvm.memcpy.p0.p0.i64(ptr align 4 %14, ptr align 4 %15, i64 8, i1 false)
  call void @llvm.lifetime.end.p0(i64 4, ptr %23) #8
  call void @llvm.lifetime.end.p0(i64 4, ptr %22) #8
  call void @llvm.lifetime.end.p0(i64 4, ptr %21) #8
  br label %254

254:                                              ; preds = %209
  %255 = load i32, ptr %20, align 4
  %256 = add nsw i32 %255, 1
  store i32 %256, ptr %20, align 4
  br label %118

257:                                              ; preds = %121
  %258 = getelementptr inbounds [50 x %struct.Vector2], ptr %17, i64 0, i64 0
  %259 = load i32, ptr %11, align 1
  call void @DrawTriangleStrip(ptr noundef %258, i32 noundef 50, i32 %259)
  call void @llvm.lifetime.end.p0(i64 16, ptr %19) #8
  call void @llvm.lifetime.end.p0(i64 16, ptr %18) #8
  call void @llvm.lifetime.end.p0(i64 400, ptr %17) #8
  call void @llvm.lifetime.end.p0(i64 4, ptr %16) #8
  call void @llvm.lifetime.end.p0(i64 8, ptr %15) #8
  call void @llvm.lifetime.end.p0(i64 8, ptr %14) #8
  call void @llvm.lifetime.end.p0(i64 4, ptr %13) #8
  ret void
}