; Function Attrs: nounwind uwtable
define void @DrawSplineSegmentBasis(<2 x float> %0, <2 x float> %1, <2 x float> %2, <2 x float> %3, float noundef %4, i32 %5) local_unnamed_addr #4 {
  %7 = alloca [50 x %struct.Vector2], align 16
  call void @llvm.lifetime.start.p0(i64 400, ptr nonnull %7) #16
  call void @llvm.memset.p0.i64(ptr noundef nonnull align 16 dereferenceable(400) %7, i8 0, i64 400, i1 false)
  %.sroa.075.0.vec.extract = extractelement <2 x float> %0, i64 0
  %8 = fneg float %.sroa.075.0.vec.extract
  %.sroa.066.0.vec.extract = extractelement <2 x float> %1, i64 0
  %9 = tail call float @llvm.fmuladd.f32(float %.sroa.066.0.vec.extract, float 3.000000e+00, float %8)
  %.sroa.053.0.vec.extract = extractelement <2 x float> %2, i64 0
  %10 = tail call float @llvm.fmuladd.f32(float %.sroa.053.0.vec.extract, float -3.000000e+00, float %9)
  %.sroa.052.0.vec.extract = extractelement <2 x float> %3, i64 0
  %11 = fadd float %10, %.sroa.052.0.vec.extract
  %12 = fdiv float %11, 6.000000e+00
  %13 = fmul float %.sroa.066.0.vec.extract, -6.000000e+00
  %14 = tail call float @llvm.fmuladd.f32(float %.sroa.075.0.vec.extract, float 3.000000e+00, float %13)
  %15 = tail call float @llvm.fmuladd.f32(float %.sroa.053.0.vec.extract, float 3.000000e+00, float %14)
  %16 = fdiv float %15, 6.000000e+00
  %17 = fmul float %.sroa.053.0.vec.extract, 3.000000e+00
  %18 = tail call float @llvm.fmuladd.f32(float %.sroa.075.0.vec.extract, float -3.000000e+00, float %17)
  %19 = fdiv float %18, 6.000000e+00
  %20 = tail call float @llvm.fmuladd.f32(float %.sroa.066.0.vec.extract, float 4.000000e+00, float %.sroa.075.0.vec.extract)
  %21 = fadd float %20, %.sroa.053.0.vec.extract
  %22 = fdiv float %21, 6.000000e+00
  %.sroa.075.4.vec.extract = extractelement <2 x float> %0, i64 1
  %23 = fneg float %.sroa.075.4.vec.extract
  %.sroa.066.4.vec.extract = extractelement <2 x float> %1, i64 1
  %24 = tail call float @llvm.fmuladd.f32(float %.sroa.066.4.vec.extract, float 3.000000e+00, float %23)
  %.sroa.053.4.vec.extract = extractelement <2 x float> %2, i64 1
  %25 = tail call float @llvm.fmuladd.f32(float %.sroa.053.4.vec.extract, float -3.000000e+00, float %24)
  %.sroa.052.4.vec.extract = extractelement <2 x float> %3, i64 1
  %26 = fadd float %25, %.sroa.052.4.vec.extract
  %27 = fdiv float %26, 6.000000e+00
  %28 = fmul float %.sroa.066.4.vec.extract, -6.000000e+00
  %29 = tail call float @llvm.fmuladd.f32(float %.sroa.075.4.vec.extract, float 3.000000e+00, float %28)
  %30 = tail call float @llvm.fmuladd.f32(float %.sroa.053.4.vec.extract, float 3.000000e+00, float %29)
  %31 = fdiv float %30, 6.000000e+00
  %32 = fmul float %.sroa.053.4.vec.extract, 3.000000e+00
  %33 = tail call float @llvm.fmuladd.f32(float %.sroa.075.4.vec.extract, float -3.000000e+00, float %32)
  %34 = fdiv float %33, 6.000000e+00
  %35 = tail call float @llvm.fmuladd.f32(float %.sroa.066.4.vec.extract, float 4.000000e+00, float %.sroa.075.4.vec.extract)
  %36 = fadd float %35, %.sroa.053.4.vec.extract
  %37 = fdiv float %36, 6.000000e+00
  %38 = fmul float %4, 5.000000e-01
  %39 = getelementptr inbounds nuw i8, ptr %7, i64 4
  %40 = getelementptr inbounds nuw i8, ptr %7, i64 8
  %41 = getelementptr inbounds nuw i8, ptr %7, i64 12
  br label %43

42:                                               ; preds = %66
  call void @DrawTriangleStrip(ptr noundef nonnull %7, i32 noundef 50, i32 %5)
  call void @llvm.lifetime.end.p0(i64 400, ptr nonnull %7) #16
  ret void

43:                                               ; preds = %6, %66
  %indvars.iv = phi i64 [ 0, %6 ], [ %indvars.iv.next, %66 ]
  %.sroa.044.090 = phi float [ %22, %6 ], [ %49, %66 ]
  %.sroa.847.089 = phi float [ %37, %6 ], [ %52, %66 ]
  %44 = trunc nuw nsw i64 %indvars.iv to i32
  %45 = uitofp nneg i32 %44 to float
  %46 = fmul float %45, 0x3FA5555560000000
  %47 = tail call float @llvm.fmuladd.f32(float %46, float %12, float %16)
  %48 = tail call float @llvm.fmuladd.f32(float %46, float %47, float %19)
  %49 = tail call float @llvm.fmuladd.f32(float %46, float %48, float %22)
  %50 = tail call float @llvm.fmuladd.f32(float %46, float %27, float %31)
  %51 = tail call float @llvm.fmuladd.f32(float %46, float %50, float %34)
  %52 = tail call float @llvm.fmuladd.f32(float %46, float %51, float %37)
  %53 = fsub float %52, %.sroa.847.089
  %54 = fsub float %49, %.sroa.044.090
  %55 = fmul float %53, %53
  %56 = tail call float @llvm.fmuladd.f32(float %54, float %54, float %55)
  %sqrt = tail call float @llvm.sqrt.f32(float %56)
  %57 = fdiv float %38, %sqrt
  %58 = icmp eq i64 %indvars.iv, 1
  br i1 %58, label %59, label %._crit_edge

._crit_edge:                                      ; preds = %43
  %.pre = fneg float %53
  %.pre92 = fneg float %54
  br label %66

59:                                               ; preds = %43
  %60 = tail call float @llvm.fmuladd.f32(float %53, float %57, float %.sroa.044.090)
  store float %60, ptr %7, align 16
  %61 = fneg float %54
  %62 = tail call float @llvm.fmuladd.f32(float %61, float %57, float %.sroa.847.089)
  store float %62, ptr %39, align 4
  %63 = fneg float %53
  %64 = tail call float @llvm.fmuladd.f32(float %63, float %57, float %.sroa.044.090)
  store float %64, ptr %40, align 8
  %65 = tail call float @llvm.fmuladd.f32(float %54, float %57, float %.sroa.847.089)
  store float %65, ptr %41, align 4
  br label %66

66:                                               ; preds = %._crit_edge, %59
  %.pre-phi93 = phi float [ %.pre92, %._crit_edge ], [ %61, %59 ]
  %.pre-phi = phi float [ %.pre, %._crit_edge ], [ %63, %59 ]
  %67 = tail call float @llvm.fmuladd.f32(float %.pre-phi, float %57, float %49)
  %68 = shl nuw nsw i64 %indvars.iv, 1
  %69 = or disjoint i64 %68, 1
  %70 = getelementptr inbounds nuw [50 x %struct.Vector2], ptr %7, i64 0, i64 %69
  store float %67, ptr %70, align 8
  %71 = tail call float @llvm.fmuladd.f32(float %54, float %57, float %52)
  %72 = getelementptr inbounds nuw i8, ptr %70, i64 4
  store float %71, ptr %72, align 4
  %73 = tail call float @llvm.fmuladd.f32(float %53, float %57, float %49)
  %74 = getelementptr inbounds nuw [50 x %struct.Vector2], ptr %7, i64 0, i64 %68
  store float %73, ptr %74, align 16
  %75 = tail call float @llvm.fmuladd.f32(float %.pre-phi93, float %57, float %52)
  %76 = getelementptr inbounds nuw i8, ptr %74, i64 4
  store float %75, ptr %76, align 4
  %indvars.iv.next = add nuw nsw i64 %indvars.iv, 1
  %exitcond.not = icmp eq i64 %indvars.iv.next, 25
  br i1 %exitcond.not, label %42, label %43
}